; ModuleID = 'source-C-CXX/6/1217.cpp'
source_filename = "source-C-CXX/6/1217.cpp"
target datalayout = "e-m:e-p270:32:32-p271:32:32-p272:64:64-i64:64-f80:128-n8:16:32:64-S128"
target triple = "x86_64-pc-linux-gnu"

%"class.std::ios_base::Init" = type { i8 }
%"class.std::basic_istream" = type { i32 (...)**, i64, %"class.std::basic_ios" }
%"class.std::basic_ios" = type { %"class.std::ios_base", %"class.std::basic_ostream"*, i8, i8, %"class.std::basic_streambuf"*, %"class.std::ctype"*, %"class.std::num_put"*, %"class.std::num_get"* }
%"class.std::ios_base" = type { i32 (...)**, i64, i64, i32, i32, i32, %"struct.std::ios_base::_Callback_list"*, %"struct.std::ios_base::_Words", [8 x %"struct.std::ios_base::_Words"], i32, %"struct.std::ios_base::_Words"*, %"class.std::locale" }
%"struct.std::ios_base::_Callback_list" = type { %"struct.std::ios_base::_Callback_list"*, void (i32, %"class.std::ios_base"*, i32)*, i32, i32 }
%"struct.std::ios_base::_Words" = type { i8*, i64 }
%"class.std::locale" = type { %"class.std::locale::_Impl"* }
%"class.std::locale::_Impl" = type { i32, %"class.std::locale::facet"**, i64, %"class.std::locale::facet"**, i8** }
%"class.std::locale::facet" = type <{ i32 (...)**, i32, [4 x i8] }>
%"class.std::basic_ostream" = type { i32 (...)**, %"class.std::basic_ios" }
%"class.std::basic_streambuf" = type { i32 (...)**, i8*, i8*, i8*, i8*, i8*, i8*, %"class.std::locale" }
%"class.std::ctype" = type <{ %"class.std::locale::facet.base", [4 x i8], %struct.__locale_struct*, i8, [7 x i8], i32*, i32*, i16*, i8, [256 x i8], [256 x i8], i8, [6 x i8] }>
%"class.std::locale::facet.base" = type <{ i32 (...)**, i32 }>
%struct.__locale_struct = type { [13 x %struct.__locale_data*], i16*, i32*, i32*, [13 x i8*] }
%struct.__locale_data = type opaque
%"class.std::num_put" = type { %"class.std::locale::facet.base", [4 x i8] }
%"class.std::num_get" = type { %"class.std::locale::facet.base", [4 x i8] }

@_ZStL8__ioinit = internal global %"class.std::ios_base::Init" zeroinitializer, align 1
@__dso_handle = external hidden global i8
@_ZSt3cin = external global %"class.std::basic_istream", align 8
@_ZSt4cout = external global %"class.std::basic_ostream", align 8
@llvm.global_ctors = appending global [1 x { i32, void ()*, i8* }] [{ i32, void ()*, i8* } { i32 65535, void ()* @_GLOBAL__sub_I_1217.cpp, i8* null }]

declare void @_ZNSt8ios_base4InitC1Ev(%"class.std::ios_base::Init"* nonnull align 1 dereferenceable(1)) unnamed_addr #0

; Function Attrs: nounwind
declare void @_ZNSt8ios_base4InitD1Ev(%"class.std::ios_base::Init"* nonnull align 1 dereferenceable(1)) unnamed_addr #1

; Function Attrs: nofree nounwind
declare i32 @__cxa_atexit(void (i8*)*, i8*, i8*) local_unnamed_addr #2

; Function Attrs: mustprogress norecurse sspstrong uwtable
define dso_local i32 @main() local_unnamed_addr #3 {
  %1 = alloca i8, align 1
  %2 = alloca i8, align 1
  %3 = alloca [300 x i8], align 16
  %4 = ptrtoint [300 x i8]* %3 to i64
  %5 = alloca [300 x i8], align 16
  %6 = alloca [300 x i8], align 16
  %7 = getelementptr inbounds [300 x i8], [300 x i8]* %3, i64 0, i64 0
  call void @llvm.lifetime.start.p0i8(i64 300, i8* nonnull %7) #8
  %8 = getelementptr inbounds [300 x i8], [300 x i8]* %5, i64 0, i64 0
  call void @llvm.lifetime.start.p0i8(i64 300, i8* nonnull %8) #8
  %9 = getelementptr inbounds [300 x i8], [300 x i8]* %6, i64 0, i64 0
  call void @llvm.lifetime.start.p0i8(i64 300, i8* nonnull %9) #8
  call void @_ZSt17__istream_extractRSiPcl(%"class.std::basic_istream"* nonnull align 8 dereferenceable(16) @_ZSt3cin, i8* nonnull %7, i64 300)
  call void @_ZSt17__istream_extractRSiPcl(%"class.std::basic_istream"* nonnull align 8 dereferenceable(16) @_ZSt3cin, i8* nonnull %8, i64 300)
  call void @_ZSt17__istream_extractRSiPcl(%"class.std::basic_istream"* nonnull align 8 dereferenceable(16) @_ZSt3cin, i8* nonnull %9, i64 300)
  %10 = call i8* @strstr(i8* noundef nonnull %7, i8* noundef nonnull %8) #9
  %11 = ptrtoint i8* %10 to i64
  %12 = icmp eq i8* %10, null
  br i1 %12, label %13, label %39

13:                                               ; preds = %0
  %14 = call i64 @strlen(i8* noundef nonnull dereferenceable(1) %7) #8
  %15 = call nonnull align 8 dereferenceable(8) %"class.std::basic_ostream"* @_ZSt16__ostream_insertIcSt11char_traitsIcEERSt13basic_ostreamIT_T0_ES6_PKS3_l(%"class.std::basic_ostream"* nonnull align 8 dereferenceable(8) @_ZSt4cout, i8* nonnull %7, i64 %14)
  %16 = load i8*, i8** bitcast (%"class.std::basic_ostream"* @_ZSt4cout to i8**), align 8, !tbaa !5
  %17 = getelementptr i8, i8* %16, i64 -24
  %18 = bitcast i8* %17 to i64*
  %19 = load i64, i64* %18, align 8
  %20 = add nsw i64 %19, 240
  %21 = getelementptr inbounds i8, i8* bitcast (%"class.std::basic_ostream"* @_ZSt4cout to i8*), i64 %20
  %22 = bitcast i8* %21 to %"class.std::ctype"**
  %23 = load %"class.std::ctype"*, %"class.std::ctype"** %22, align 8, !tbaa !8
  %24 = icmp eq %"class.std::ctype"* %23, null
  br i1 %24, label %25, label %26

25:                                               ; preds = %13
  call void @_ZSt16__throw_bad_castv() #10
  unreachable

26:                                               ; preds = %13
  %27 = getelementptr inbounds %"class.std::ctype", %"class.std::ctype"* %23, i64 0, i32 8
  %28 = load i8, i8* %27, align 8, !tbaa !13
  %29 = icmp eq i8 %28, 0
  br i1 %29, label %33, label %30

30:                                               ; preds = %26
  %31 = getelementptr inbounds %"class.std::ctype", %"class.std::ctype"* %23, i64 0, i32 9, i64 10
  %32 = load i8, i8* %31, align 1, !tbaa !15
  br label %101

33:                                               ; preds = %26
  call void @_ZNKSt5ctypeIcE13_M_widen_initEv(%"class.std::ctype"* nonnull align 8 dereferenceable(570) %23)
  %34 = bitcast %"class.std::ctype"* %23 to i8 (%"class.std::ctype"*, i8)***
  %35 = load i8 (%"class.std::ctype"*, i8)**, i8 (%"class.std::ctype"*, i8)*** %34, align 8, !tbaa !5
  %36 = getelementptr inbounds i8 (%"class.std::ctype"*, i8)*, i8 (%"class.std::ctype"*, i8)** %35, i64 6
  %37 = load i8 (%"class.std::ctype"*, i8)*, i8 (%"class.std::ctype"*, i8)** %36, align 8
  %38 = call signext i8 %37(%"class.std::ctype"* nonnull align 8 dereferenceable(570) %23, i8 signext 10)
  br label %101

39:                                               ; preds = %0
  %40 = call i64 @strlen(i8* noundef nonnull %7) #9
  %41 = trunc i64 %40 to i32
  %42 = call i64 @strlen(i8* noundef nonnull %8) #9
  %43 = trunc i64 %42 to i32
  %44 = call i64 @strlen(i8* noundef nonnull %9) #9
  %45 = trunc i64 %44 to i32
  %46 = icmp eq i8* %7, %10
  br i1 %46, label %59, label %47

47:                                               ; preds = %39
  %48 = sub i64 %11, %4
  br label %49

49:                                               ; preds = %47, %49
  %50 = phi i64 [ 0, %47 ], [ %54, %49 ]
  %51 = phi i8* [ %7, %47 ], [ %55, %49 ]
  %52 = load i8, i8* %51, align 1, !tbaa !15
  call void @llvm.lifetime.start.p0i8(i64 1, i8* nonnull %2)
  store i8 %52, i8* %2, align 1, !tbaa !15
  %53 = call nonnull align 8 dereferenceable(8) %"class.std::basic_ostream"* @_ZSt16__ostream_insertIcSt11char_traitsIcEERSt13basic_ostreamIT_T0_ES6_PKS3_l(%"class.std::basic_ostream"* nonnull align 8 dereferenceable(8) @_ZSt4cout, i8* nonnull %2, i64 1)
  call void @llvm.lifetime.end.p0i8(i64 1, i8* nonnull %2)
  %54 = add nuw i64 %50, 1
  %55 = getelementptr inbounds [300 x i8], [300 x i8]* %3, i64 0, i64 %54
  %56 = icmp eq i64 %54, %48
  br i1 %56, label %57, label %49, !llvm.loop !16

57:                                               ; preds = %49
  %58 = trunc i64 %48 to i32
  br label %59

59:                                               ; preds = %57, %39
  %60 = phi i32 [ 0, %39 ], [ %58, %57 ]
  %61 = call i64 @strlen(i8* noundef nonnull dereferenceable(1) %9) #8
  %62 = call nonnull align 8 dereferenceable(8) %"class.std::basic_ostream"* @_ZSt16__ostream_insertIcSt11char_traitsIcEERSt13basic_ostreamIT_T0_ES6_PKS3_l(%"class.std::basic_ostream"* nonnull align 8 dereferenceable(8) @_ZSt4cout, i8* nonnull %9, i64 %61)
  %63 = add i32 %60, %43
  %64 = sub i32 %41, %43
  %65 = add nsw i32 %64, %45
  %66 = icmp slt i32 %63, %65
  br i1 %66, label %67, label %77

67:                                               ; preds = %59
  %68 = sext i32 %63 to i64
  %69 = sext i32 %65 to i64
  br label %70

70:                                               ; preds = %67, %70
  %71 = phi i64 [ %68, %67 ], [ %75, %70 ]
  %72 = getelementptr inbounds [300 x i8], [300 x i8]* %3, i64 0, i64 %71
  %73 = load i8, i8* %72, align 1, !tbaa !15
  call void @llvm.lifetime.start.p0i8(i64 1, i8* nonnull %1)
  store i8 %73, i8* %1, align 1, !tbaa !15
  %74 = call nonnull align 8 dereferenceable(8) %"class.std::basic_ostream"* @_ZSt16__ostream_insertIcSt11char_traitsIcEERSt13basic_ostreamIT_T0_ES6_PKS3_l(%"class.std::basic_ostream"* nonnull align 8 dereferenceable(8) @_ZSt4cout, i8* nonnull %1, i64 1)
  call void @llvm.lifetime.end.p0i8(i64 1, i8* nonnull %1)
  %75 = add nsw i64 %71, 1
  %76 = icmp slt i64 %75, %69
  br i1 %76, label %70, label %77, !llvm.loop !18

77:                                               ; preds = %70, %59
  %78 = load i8*, i8** bitcast (%"class.std::basic_ostream"* @_ZSt4cout to i8**), align 8, !tbaa !5
  %79 = getelementptr i8, i8* %78, i64 -24
  %80 = bitcast i8* %79 to i64*
  %81 = load i64, i64* %80, align 8
  %82 = add nsw i64 %81, 240
  %83 = getelementptr inbounds i8, i8* bitcast (%"class.std::basic_ostream"* @_ZSt4cout to i8*), i64 %82
  %84 = bitcast i8* %83 to %"class.std::ctype"**
  %85 = load %"class.std::ctype"*, %"class.std::ctype"** %84, align 8, !tbaa !8
  %86 = icmp eq %"class.std::ctype"* %85, null
  br i1 %86, label %87, label %88

87:                                               ; preds = %77
  call void @_ZSt16__throw_bad_castv() #10
  unreachable

88:                                               ; preds = %77
  %89 = getelementptr inbounds %"class.std::ctype", %"class.std::ctype"* %85, i64 0, i32 8
  %90 = load i8, i8* %89, align 8, !tbaa !13
  %91 = icmp eq i8 %90, 0
  br i1 %91, label %95, label %92

92:                                               ; preds = %88
  %93 = getelementptr inbounds %"class.std::ctype", %"class.std::ctype"* %85, i64 0, i32 9, i64 10
  %94 = load i8, i8* %93, align 1, !tbaa !15
  br label %101

95:                                               ; preds = %88
  call void @_ZNKSt5ctypeIcE13_M_widen_initEv(%"class.std::ctype"* nonnull align 8 dereferenceable(570) %85)
  %96 = bitcast %"class.std::ctype"* %85 to i8 (%"class.std::ctype"*, i8)***
  %97 = load i8 (%"class.std::ctype"*, i8)**, i8 (%"class.std::ctype"*, i8)*** %96, align 8, !tbaa !5
  %98 = getelementptr inbounds i8 (%"class.std::ctype"*, i8)*, i8 (%"class.std::ctype"*, i8)** %97, i64 6
  %99 = load i8 (%"class.std::ctype"*, i8)*, i8 (%"class.std::ctype"*, i8)** %98, align 8
  %100 = call signext i8 %99(%"class.std::ctype"* nonnull align 8 dereferenceable(570) %85, i8 signext 10)
  br label %101

101:                                              ; preds = %95, %92, %33, %30
  %102 = phi i8 [ %32, %30 ], [ %38, %33 ], [ %94, %92 ], [ %100, %95 ]
  %103 = call nonnull align 8 dereferenceable(8) %"class.std::basic_ostream"* @_ZNSo3putEc(%"class.std::basic_ostream"* nonnull align 8 dereferenceable(8) @_ZSt4cout, i8 signext %102)
  %104 = call nonnull align 8 dereferenceable(8) %"class.std::basic_ostream"* @_ZNSo5flushEv(%"class.std::basic_ostream"* nonnull align 8 dereferenceable(8) %103)
  call void @llvm.lifetime.end.p0i8(i64 300, i8* nonnull %9) #8
  call void @llvm.lifetime.end.p0i8(i64 300, i8* nonnull %8) #8
  call void @llvm.lifetime.end.p0i8(i64 300, i8* nonnull %7) #8
  ret i32 0
}

; Function Attrs: argmemonly mustprogress nofree nosync nounwind willreturn
declare void @llvm.lifetime.start.p0i8(i64 immarg, i8* nocapture) #4

; Function Attrs: argmemonly mustprogress nofree nounwind readonly willreturn
declare i8* @strstr(i8*, i8* nocapture) local_unnamed_addr #5

; Function Attrs: argmemonly mustprogress nofree nounwind readonly willreturn
declare i64 @strlen(i8* nocapture) local_unnamed_addr #5

; Function Attrs: argmemonly mustprogress nofree nosync nounwind willreturn
declare void @llvm.lifetime.end.p0i8(i64 immarg, i8* nocapture) #4

declare void @_ZSt17__istream_extractRSiPcl(%"class.std::basic_istream"* nonnull align 8 dereferenceable(16), i8*, i64) local_unnamed_addr #0

declare nonnull align 8 dereferenceable(8) %"class.std::basic_ostream"* @_ZSt16__ostream_insertIcSt11char_traitsIcEERSt13basic_ostreamIT_T0_ES6_PKS3_l(%"class.std::basic_ostream"* nonnull align 8 dereferenceable(8), i8*, i64) local_unnamed_addr #0

declare nonnull align 8 dereferenceable(8) %"class.std::basic_ostream"* @_ZNSo3putEc(%"class.std::basic_ostream"* nonnull align 8 dereferenceable(8), i8 signext) local_unnamed_addr #0

declare nonnull align 8 dereferenceable(8) %"class.std::basic_ostream"* @_ZNSo5flushEv(%"class.std::basic_ostream"* nonnull align 8 dereferenceable(8)) local_unnamed_addr #0

; Function Attrs: noreturn
declare void @_ZSt16__throw_bad_castv() local_unnamed_addr #6

declare void @_ZNKSt5ctypeIcE13_M_widen_initEv(%"class.std::ctype"* nonnull align 8 dereferenceable(570)) local_unnamed_addr #0

; Function Attrs: sspstrong uwtable
define internal void @_GLOBAL__sub_I_1217.cpp() #7 section ".text.startup" {
  tail call void @_ZNSt8ios_base4InitC1Ev(%"class.std::ios_base::Init"* nonnull align 1 dereferenceable(1) @_ZStL8__ioinit)
  %1 = tail call i32 @__cxa_atexit(void (i8*)* bitcast (void (%"class.std::ios_base::Init"*)* @_ZNSt8ios_base4InitD1Ev to void (i8*)*), i8* getelementptr inbounds (%"class.std::ios_base::Init", %"class.std::ios_base::Init"* @_ZStL8__ioinit, i64 0, i32 0), i8* nonnull @__dso_handle) #8
  ret void
}


!llvm.module.flags = !{!0, !1, !2, !3}
!llvm.ident = !{!4}

!0 = !{i32 1, !"wchar_size", i32 4}
!1 = !{i32 7, !"PIC Level", i32 2}
!2 = !{i32 7, !"PIE Level", i32 2}
!3 = !{i32 7, !"uwtable", i32 1}
!4 = !{!"clang version 13.0.0"}
!5 = !{!6, !6, i64 0}
!6 = !{!"vtable pointer", !7, i64 0}
!7 = !{!"Simple C++ TBAA"}
!8 = !{!9, !10, i64 240}
!9 = !{!"_ZTSSt9basic_iosIcSt11char_traitsIcEE", !10, i64 216, !11, i64 224, !12, i64 225, !10, i64 232, !10, i64 240, !10, i64 248, !10, i64 256}
!10 = !{!"any pointer", !11, i64 0}
!11 = !{!"omnipotent char", !7, i64 0}
!12 = !{!"bool", !11, i64 0}
!13 = !{!14, !11, i64 56}
!14 = !{!"_ZTSSt5ctypeIcE", !10, i64 16, !12, i64 24, !10, i64 32, !10, i64 40, !10, i64 48, !11, i64 56, !11, i64 57, !11, i64 313, !11, i64 569}
!15 = !{!11, !11, i64 0}
!16 = distinct !{!16, !17}
!17 = !{!"llvm.loop.mustprogress"}
!18 = distinct !{!18, !17}
